target datalayout = "e-m:e-p270:32:32-p271:32:32-p272:64:64-i64:64-i128:128-f80:128-n8:16:32:64-S128"
target triple = "x86_64-pc-linux-gnu"

%struct.Path = type { i32, i32, ptr, ptr, ptr, i8, i8, i32, double, i32, double, double, ptr }
%struct.ForEachState = type { ptr, i32 }
%struct.List = type { i32, i32, i32, ptr, [0 x %union.ListCell] }
%union.ListCell = type { ptr }
%struct.PathKey = type { i32, ptr, i32, i32, i8 }
%struct.EquivalenceClass = type { i32, ptr, i32, ptr, ptr, ptr, ptr, i8, i8, i8, i32, i32, i32, ptr }
%struct.EquivalenceMember = type { i32, ptr, ptr, i8, i8, i32, ptr, ptr }

@cpu_tuple_cost = dso_local global double 1.000000e-02, align 8

; Function Attrs: inlinehint nounwind uwtable
define internal ptr @list_nth_cell(ptr noundef %0, i32 noundef %1) #4 {
  %3 = alloca ptr, align 8
  %4 = alloca i32, align 4
  store ptr %0, ptr %3, align 8
  store i32 %1, ptr %4, align 4
  %5 = load ptr, ptr %3, align 8
  %6 = getelementptr inbounds nuw %struct.List, ptr %5, i32 0, i32 3
  %7 = load ptr, ptr %6, align 8
  %8 = load i32, ptr %4, align 4
  %9 = sext i32 %8 to i64
  %10 = getelementptr inbounds %union.ListCell, ptr %7, i64 %9
  ret ptr %10
}

; Function Attrs: nounwind uwtable
define dso_local void @cost_incremental_sort(ptr noundef %0, ptr noundef %1, ptr noundef %2, i32 noundef %3, i32 noundef %4, double noundef %5, double noundef %6, double noundef %7, i32 noundef %8, double noundef %9, i32 noundef %10, double noundef %11) #0 {
  %13 = alloca ptr, align 8
  %14 = alloca ptr, align 8
  %15 = alloca ptr, align 8
  %16 = alloca i32, align 4
  %17 = alloca i32, align 4
  %18 = alloca double, align 8
  %19 = alloca double, align 8
  %20 = alloca double, align 8
  %21 = alloca i32, align 4
  %22 = alloca double, align 8
  %23 = alloca i32, align 4
  %24 = alloca double, align 8
  %25 = alloca double, align 8
  %26 = alloca double, align 8
  %27 = alloca double, align 8
  %28 = alloca double, align 8
  %29 = alloca double, align 8
  %30 = alloca double, align 8
  %31 = alloca double, align 8
  %32 = alloca double, align 8
  %33 = alloca ptr, align 8
  %34 = alloca ptr, align 8
  %35 = alloca i8, align 1
  %36 = alloca %struct.ForEachState, align 8
  %37 = alloca i32, align 4
  %38 = alloca ptr, align 8
  %39 = alloca ptr, align 8
  store ptr %0, ptr %13, align 8
  store ptr %1, ptr %14, align 8
  store ptr %2, ptr %15, align 8
  store i32 %3, ptr %16, align 4
  store i32 %4, ptr %17, align 4
  store double %5, ptr %18, align 8
  store double %6, ptr %19, align 8
  store double %7, ptr %20, align 8
  store i32 %8, ptr %21, align 4
  store double %9, ptr %22, align 8
  store i32 %10, ptr %23, align 4
  store double %11, ptr %24, align 8
  call void @llvm.lifetime.start.p0(i64 8, ptr %25) #9
  call void @llvm.lifetime.start.p0(i64 8, ptr %26) #9
  call void @llvm.lifetime.start.p0(i64 8, ptr %27) #9
  %40 = load double, ptr %19, align 8
  %41 = load double, ptr %18, align 8
  %42 = fsub double %40, %41
  store double %42, ptr %27, align 8
  call void @llvm.lifetime.start.p0(i64 8, ptr %28) #9
  call void @llvm.lifetime.start.p0(i64 8, ptr %29) #9
  call void @llvm.lifetime.start.p0(i64 8, ptr %30) #9
  call void @llvm.lifetime.start.p0(i64 8, ptr %31) #9
  call void @llvm.lifetime.start.p0(i64 8, ptr %32) #9
  call void @llvm.lifetime.start.p0(i64 8, ptr %33) #9
  store ptr null, ptr %33, align 8
  call void @llvm.lifetime.start.p0(i64 8, ptr %34) #9
  call void @llvm.lifetime.start.p0(i64 1, ptr %35) #9
  store i8 0, ptr %35, align 1
  %43 = load double, ptr %20, align 8
  %44 = fcmp olt double %43, 2.000000e+00
  br i1 %44, label %45, label %46

45:                                               ; preds = %12
  store double 2.000000e+00, ptr %20, align 8
  br label %46

46:                                               ; preds = %45, %12
  %47 = load double, ptr %20, align 8
  %48 = fcmp olt double %47, 2.000000e+02
  br i1 %48, label %49, label %51

49:                                               ; preds = %46
  %50 = load double, ptr %20, align 8
  br label %52

51:                                               ; preds = %46
  br label %52

52:                                               ; preds = %51, %49
  %53 = phi double [ %50, %49 ], [ 2.000000e+02, %51 ]
  store double %53, ptr %29, align 8
  call void @llvm.lifetime.start.p0(i64 16, ptr %36) #9
  %54 = getelementptr inbounds nuw %struct.ForEachState, ptr %36, i32 0, i32 0
  %55 = load ptr, ptr %15, align 8
  store ptr %55, ptr %54, align 8
  %56 = getelementptr inbounds nuw %struct.ForEachState, ptr %36, i32 0, i32 1
  store i32 0, ptr %56, align 8
  %57 = getelementptr i8, ptr %36, i64 12
  call void @llvm.memset.p0.i64(ptr align 4 %57, i8 0, i64 4, i1 false)
  br label %58

58:                                               ; preds = %117, %52
  %59 = getelementptr inbounds nuw %struct.ForEachState, ptr %36, i32 0, i32 0
  %60 = load ptr, ptr %59, align 8
  %61 = icmp ne ptr %60, null
  br i1 %61, label %62, label %79

62:                                               ; preds = %58
  %63 = getelementptr inbounds nuw %struct.ForEachState, ptr %36, i32 0, i32 1
  %64 = load i32, ptr %63, align 8
  %65 = getelementptr inbounds nuw %struct.ForEachState, ptr %36, i32 0, i32 0
  %66 = load ptr, ptr %65, align 8
  %67 = getelementptr inbounds nuw %struct.List, ptr %66, i32 0, i32 1
  %68 = load i32, ptr %67, align 4
  %69 = icmp slt i32 %64, %68
  br i1 %69, label %70, label %79

70:                                               ; preds = %62
  %71 = getelementptr inbounds nuw %struct.ForEachState, ptr %36, i32 0, i32 0
  %72 = load ptr, ptr %71, align 8
  %73 = getelementptr inbounds nuw %struct.List, ptr %72, i32 0, i32 3
  %74 = load ptr, ptr %73, align 8
  %75 = getelementptr inbounds nuw %struct.ForEachState, ptr %36, i32 0, i32 1
  %76 = load i32, ptr %75, align 8
  %77 = sext i32 %76 to i64
  %78 = getelementptr inbounds %union.ListCell, ptr %74, i64 %77
  store ptr %78, ptr %34, align 8
  br label %80

79:                                               ; preds = %62, %58
  store ptr null, ptr %34, align 8
  br label %80

80:                                               ; preds = %79, %70
  %81 = phi i32 [ 1, %70 ], [ 0, %79 ]
  %82 = icmp ne i32 %81, 0
  br i1 %82, label %84, label %83

83:                                               ; preds = %80
  store i32 2, ptr %37, align 4
  br label %121

84:                                               ; preds = %80
  call void @llvm.lifetime.start.p0(i64 8, ptr %38) #9
  %85 = load ptr, ptr %34, align 8
  %86 = load ptr, ptr %85, align 8
  store ptr %86, ptr %38, align 8
  call void @llvm.lifetime.start.p0(i64 8, ptr %39) #9
  %87 = load ptr, ptr %38, align 8
  %88 = getelementptr inbounds nuw %struct.PathKey, ptr %87, i32 0, i32 1
  %89 = load ptr, ptr %88, align 8
  %90 = getelementptr inbounds nuw %struct.EquivalenceClass, ptr %89, i32 0, i32 3
  %91 = load ptr, ptr %90, align 8
  %92 = call ptr @list_nth_cell(ptr noundef %91, i32 noundef 0)
  %93 = load ptr, ptr %92, align 8
  store ptr %93, ptr %39, align 8
  %94 = load ptr, ptr %14, align 8
  %95 = load ptr, ptr %39, align 8
  %96 = getelementptr inbounds nuw %struct.EquivalenceMember, ptr %95, i32 0, i32 1
  %97 = load ptr, ptr %96, align 8
  %98 = call ptr @pull_varnos(ptr noundef %94, ptr noundef %97)
  %99 = call zeroext i1 @bms_is_member(i32 noundef 0, ptr noundef %98)
  br i1 %99, label %100, label %101

100:                                              ; preds = %84
  store i8 1, ptr %35, align 1
  store i32 2, ptr %37, align 4
  br label %114

101:                                              ; preds = %84
  %102 = load ptr, ptr %33, align 8
  %103 = load ptr, ptr %39, align 8
  %104 = getelementptr inbounds nuw %struct.EquivalenceMember, ptr %103, i32 0, i32 1
  %105 = load ptr, ptr %104, align 8
  %106 = call ptr @lappend(ptr noundef %102, ptr noundef %105)
  store ptr %106, ptr %33, align 8
  %107 = getelementptr inbounds nuw %struct.ForEachState, ptr %36, i32 0, i32 1
  %108 = load i32, ptr %107, align 8
  %109 = add i32 %108, 1
  %110 = load i32, ptr %16, align 4
  %111 = icmp sge i32 %109, %110
  br i1 %111, label %112, label %113

112:                                              ; preds = %101
  store i32 2, ptr %37, align 4
  br label %114

113:                                              ; preds = %101
  store i32 0, ptr %37, align 4
  br label %114

114:                                              ; preds = %113, %112, %100
  call void @llvm.lifetime.end.p0(i64 8, ptr %39) #9
  call void @llvm.lifetime.end.p0(i64 8, ptr %38) #9
  %115 = load i32, ptr %37, align 4
  switch i32 %115, label %121 [
    i32 0, label %116
  ]

116:                                              ; preds = %114
  br label %117

117:                                              ; preds = %116
  %118 = getelementptr inbounds nuw %struct.ForEachState, ptr %36, i32 0, i32 1
  %119 = load i32, ptr %118, align 8
  %120 = add i32 %119, 1
  store i32 %120, ptr %118, align 8
  br label %58, !llvm.loop !12

121:                                              ; preds = %114, %83
  call void @llvm.lifetime.end.p0(i64 16, ptr %36) #9
  br label %122

122:                                              ; preds = %121
  %123 = load i8, ptr %35, align 1, !range !4, !noundef !5
  %124 = trunc i8 %123 to i1
  br i1 %124, label %130, label %125

125:                                              ; preds = %122
  %126 = load ptr, ptr %14, align 8
  %127 = load ptr, ptr %33, align 8
  %128 = load double, ptr %20, align 8
  %129 = call double @estimate_num_groups(ptr noundef %126, ptr noundef %127, double noundef %128, ptr noundef null, ptr noundef null)
  store double %129, ptr %29, align 8
  br label %130

130:                                              ; preds = %125, %122
  %131 = load double, ptr %20, align 8
  %132 = load double, ptr %29, align 8
  %133 = fdiv double %131, %132
  store double %133, ptr %28, align 8
  %134 = load double, ptr %27, align 8
  %135 = load double, ptr %29, align 8
  %136 = fdiv double %134, %135
  store double %136, ptr %32, align 8
  %137 = load double, ptr %28, align 8
  %138 = load i32, ptr %21, align 4
  %139 = load double, ptr %22, align 8
  %140 = load i32, ptr %23, align 4
  %141 = load double, ptr %24, align 8
  call void @cost_tuplesort(ptr noundef %30, ptr noundef %31, double noundef %137, i32 noundef %138, double noundef %139, i32 noundef %140, double noundef %141)
  %142 = load double, ptr %30, align 8
  %143 = load double, ptr %18, align 8
  %144 = fadd double %142, %143
  %145 = load double, ptr %32, align 8
  %146 = fadd double %144, %145
  store double %146, ptr %25, align 8
  %147 = load double, ptr %31, align 8
  %148 = load double, ptr %31, align 8
  %149 = load double, ptr %30, align 8
  %150 = fadd double %148, %149
  %151 = load double, ptr %29, align 8
  %152 = fsub double %151, 1.000000e+00
  %153 = call double @llvm.fmuladd.f64(double %150, double %152, double %147)
  %154 = load double, ptr %32, align 8
  %155 = load double, ptr %29, align 8
  %156 = fsub double %155, 1.000000e+00
  %157 = call double @llvm.fmuladd.f64(double %154, double %156, double %153)
  store double %157, ptr %26, align 8
  %158 = load double, ptr @cpu_tuple_cost, align 8
  %159 = load double, ptr %22, align 8
  %160 = fadd double %158, %159
  %161 = load double, ptr %20, align 8
  %162 = load double, ptr %26, align 8
  %163 = call double @llvm.fmuladd.f64(double %160, double %161, double %162)
  store double %163, ptr %26, align 8
  %164 = load double, ptr @cpu_tuple_cost, align 8
  %165 = fmul double 2.000000e+00, %164
  %166 = load double, ptr %29, align 8
  %167 = load double, ptr %26, align 8
  %168 = call double @llvm.fmuladd.f64(double %165, double %166, double %167)
  store double %168, ptr %26, align 8
  %169 = load double, ptr %20, align 8
  %170 = load ptr, ptr %13, align 8
  %171 = getelementptr inbounds nuw %struct.Path, ptr %170, i32 0, i32 8
  store double %169, ptr %171, align 8
  %172 = load i32, ptr %17, align 4
  %173 = load ptr, ptr %13, align 8
  %174 = getelementptr inbounds nuw %struct.Path, ptr %173, i32 0, i32 9
  store i32 %172, ptr %174, align 8
  %175 = load double, ptr %25, align 8
  %176 = load ptr, ptr %13, align 8
  %177 = getelementptr inbounds nuw %struct.Path, ptr %176, i32 0, i32 10
  store double %175, ptr %177, align 8
  %178 = load double, ptr %25, align 8
  %179 = load double, ptr %26, align 8
  %180 = fadd double %178, %179
  %181 = load ptr, ptr %13, align 8
  %182 = getelementptr inbounds nuw %struct.Path, ptr %181, i32 0, i32 11
  store double %180, ptr %182, align 8
  call void @llvm.lifetime.end.p0(i64 1, ptr %35) #9
  call void @llvm.lifetime.end.p0(i64 8, ptr %34) #9
  call void @llvm.lifetime.end.p0(i64 8, ptr %33) #9
  call void @llvm.lifetime.end.p0(i64 8, ptr %32) #9
  call void @llvm.lifetime.end.p0(i64 8, ptr %31) #9
  call void @llvm.lifetime.end.p0(i64 8, ptr %30) #9
  call void @llvm.lifetime.end.p0(i64 8, ptr %29) #9
  call void @llvm.lifetime.end.p0(i64 8, ptr %28) #9
  call void @llvm.lifetime.end.p0(i64 8, ptr %27) #9
  call void @llvm.lifetime.end.p0(i64 8, ptr %26) #9
  call void @llvm.lifetime.end.p0(i64 8, ptr %25) #9
  ret void
}