; Function Attrs: nounwind uwtable
define dso_local void @cost_incremental_sort(ptr noundef writeonly captures(none) %0, ptr noundef %1, ptr noundef readonly captures(address_is_null) %2, i32 noundef %3, i32 noundef %4, double noundef %5, double noundef %6, double noundef %7, i32 noundef %8, double noundef %9, i32 noundef %10, double noundef %11) local_unnamed_addr #2 {
  %13 = alloca double, align 8
  %14 = alloca double, align 8
  call void @llvm.lifetime.start.p0(i64 8, ptr nonnull %13) #17
  call void @llvm.lifetime.start.p0(i64 8, ptr nonnull %14) #17
  %15 = fcmp olt double %7, 2.000000e+00
  %.0 = select i1 %15, double 2.000000e+00, double %7
  %16 = fcmp olt double %.0, 2.000000e+02
  %17 = select i1 %16, double %.0, double 2.000000e+02
  %.not = icmp eq ptr %2, null
  br i1 %.not, label %.thread, label %.lr.ph

.lr.ph:                                           ; preds = %12
  %18 = getelementptr inbounds nuw i8, ptr %2, i64 4
  %19 = getelementptr inbounds nuw i8, ptr %2, i64 16
  %20 = load i32, ptr %18, align 4
  %21 = icmp sgt i32 %20, 0
  br i1 %21, label %.lr.ph80.preheader, label %.thread

.lr.ph80.preheader:                               ; preds = %.lr.ph
  %smax = tail call i32 @llvm.smax.i32(i32 %3, i32 1)
  %22 = add nsw i32 %smax, -1
  %wide.trip.count = zext nneg i32 %22 to i64
  br label %.lr.ph80

23:                                               ; preds = %40
  %indvars.iv.next = add nuw nsw i64 %indvars.iv, 1
  %24 = load i32, ptr %18, align 4
  %25 = sext i32 %24 to i64
  %26 = icmp slt i64 %indvars.iv.next, %25
  br i1 %26, label %.lr.ph80, label %.thread

.lr.ph80:                                         ; preds = %.lr.ph80.preheader, %23
  %indvars.iv = phi i64 [ 0, %.lr.ph80.preheader ], [ %indvars.iv.next, %23 ]
  %.0527178 = phi ptr [ null, %.lr.ph80.preheader ], [ %42, %23 ]
  %27 = load ptr, ptr %19, align 8
  %28 = getelementptr inbounds nuw %union.ListCell, ptr %27, i64 %indvars.iv
  %29 = load ptr, ptr %28, align 8
  %30 = getelementptr inbounds nuw i8, ptr %29, i64 8
  %31 = load ptr, ptr %30, align 8
  %32 = getelementptr inbounds nuw i8, ptr %31, i64 24
  %33 = load ptr, ptr %32, align 8
  %34 = getelementptr i8, ptr %33, i64 16
  %.val = load ptr, ptr %34, align 8
  %35 = load ptr, ptr %.val, align 8
  %36 = getelementptr inbounds nuw i8, ptr %35, i64 8
  %37 = load ptr, ptr %36, align 8
  %38 = tail call ptr @pull_varnos(ptr noundef %1, ptr noundef %37) #17
  %39 = tail call zeroext i1 @bms_is_member(i32 noundef 0, ptr noundef %38) #17
  br i1 %39, label %.thread67, label %40

40:                                               ; preds = %.lr.ph80
  %41 = load ptr, ptr %36, align 8
  %42 = tail call ptr @lappend(ptr noundef %.0527178, ptr noundef %41) #17
  %exitcond.not = icmp eq i64 %indvars.iv, %wide.trip.count
  br i1 %exitcond.not, label %.thread, label %23

.thread:                                          ; preds = %23, %40, %.lr.ph, %12
  %.1 = phi ptr [ null, %12 ], [ null, %.lr.ph ], [ %42, %40 ], [ %42, %23 ]
  %43 = tail call double @estimate_num_groups(ptr noundef %1, ptr noundef %.1, double noundef %.0, ptr noundef null, ptr noundef null) #17
  br label %.thread67

.thread67:                                        ; preds = %.lr.ph80, %.thread
  %.050 = phi double [ %43, %.thread ], [ %17, %.lr.ph80 ]
  %44 = fsub double %6, %5
  %45 = fdiv double %.0, %.050
  %46 = fdiv double %44, %.050
  call fastcc void @cost_tuplesort(ptr noundef %13, ptr noundef %14, double noundef %45, i32 noundef %8, double noundef %9, i32 noundef %10, double noundef %11)
  %47 = load double, ptr %13, align 8
  %48 = fadd double %5, %47
  %49 = fadd double %46, %48
  %50 = load double, ptr %14, align 8
  %51 = fadd double %47, %50
  %52 = fadd double %.050, -1.000000e+00
  %53 = tail call double @llvm.fmuladd.f64(double %51, double %52, double %50)
  %54 = tail call double @llvm.fmuladd.f64(double %46, double %52, double %53)
  %55 = load double, ptr @cpu_tuple_cost, align 8
  %56 = fadd double %9, %55
  %57 = tail call double @llvm.fmuladd.f64(double %56, double %.0, double %54)
  %58 = fmul double %55, 2.000000e+00
  %59 = tail call double @llvm.fmuladd.f64(double %58, double %.050, double %57)
  %60 = getelementptr inbounds nuw i8, ptr %0, i64 40
  store double %.0, ptr %60, align 8
  %61 = getelementptr inbounds nuw i8, ptr %0, i64 48
  store i32 %4, ptr %61, align 8
  %62 = getelementptr inbounds nuw i8, ptr %0, i64 56
  store double %49, ptr %62, align 8
  %63 = fadd double %49, %59
  %64 = getelementptr inbounds nuw i8, ptr %0, i64 64
  store double %63, ptr %64, align 8
  call void @llvm.lifetime.end.p0(i64 8, ptr nonnull %14) #17
  call void @llvm.lifetime.end.p0(i64 8, ptr nonnull %13) #17
  ret void
}